target datalayout = "e-m:e-p270:32:32-p271:32:32-p272:64:64-i64:64-i128:128-f80:128-n8:16:32:64-S128"
target triple = "x86_64-pc-linux-gnu"

%struct.ForeignScanState = type { %struct.ScanState, ptr, i64, ptr, ptr, ptr }
%struct.ScanState = type { %struct.PlanState, ptr, ptr, ptr }
%struct.PlanState = type { i32, ptr, ptr, ptr, ptr, ptr, ptr, ptr, ptr, ptr, ptr, ptr, ptr, ptr, ptr, ptr, ptr, ptr, i8, ptr, ptr, ptr, ptr, ptr, i8, i8, i8, i8, i8, i8, i8, i8 }
%struct.FdwRoutine = type { i32, ptr, ptr, ptr, ptr, ptr, ptr, ptr, ptr, ptr, ptr, ptr, ptr, ptr, ptr, ptr, ptr, ptr, ptr, ptr, ptr, ptr, ptr, ptr, ptr, ptr, ptr, ptr, ptr, ptr, ptr, ptr, ptr, ptr, ptr, ptr, ptr, ptr, ptr, ptr, ptr, ptr, ptr, ptr, ptr, ptr }
%struct.AsyncRequest = type { ptr, ptr, i32, i8, i8, ptr }

; Function Attrs: nounwind uwtable
define dso_local void @ExecAsyncForeignScanNotify(ptr noundef %0) #0 {
  %2 = alloca ptr, align 8
  %3 = alloca ptr, align 8
  %4 = alloca ptr, align 8
  store ptr %0, ptr %2, align 8
  call void @llvm.lifetime.start.p0(i64 8, ptr %3) #5
  %5 = load ptr, ptr %2, align 8
  %6 = getelementptr inbounds nuw %struct.AsyncRequest, ptr %5, i32 0, i32 1
  %7 = load ptr, ptr %6, align 8
  store ptr %7, ptr %3, align 8
  call void @llvm.lifetime.start.p0(i64 8, ptr %4) #5
  %8 = load ptr, ptr %3, align 8
  %9 = getelementptr inbounds nuw %struct.ForeignScanState, ptr %8, i32 0, i32 4
  %10 = load ptr, ptr %9, align 8
  store ptr %10, ptr %4, align 8
  %11 = load ptr, ptr %4, align 8
  %12 = getelementptr inbounds nuw %struct.FdwRoutine, ptr %11, i32 0, i32 45
  %13 = load ptr, ptr %12, align 8
  %14 = load ptr, ptr %2, align 8
  call void %13(ptr noundef %14)
  call void @llvm.lifetime.end.p0(i64 8, ptr %4) #5
  call void @llvm.lifetime.end.p0(i64 8, ptr %3) #5
  ret void
}